; ModuleID = '26/1310.c'
source_filename = "26/1310.c"
target datalayout = "e-m:e-p270:32:32-p271:32:32-p272:64:64-i64:64-f80:128-n8:16:32:64-S128"
target triple = "x86_64-pc-linux-gnu"

; Function Attrs: noinline nounwind uwtable
define dso_local i32 @main() #0 {
  %1 = alloca i32, align 4
  %2 = alloca i32, align 4
  %3 = alloca i32, align 4
  %4 = alloca i32, align 4
  %5 = alloca [200 x i8], align 16
  %6 = alloca [200 x i8], align 16
  store i32 0, i32* %1, align 4
  %7 = getelementptr inbounds [200 x i8], [200 x i8]* %5, i64 0, i64 0
  %8 = call i32 (i8*, ...) bitcast (i32 (...)* @gets to i32 (i8*, ...)*)(i8* %7)
  %9 = getelementptr inbounds [200 x i8], [200 x i8]* %5, i64 0, i64 0
  %10 = call i64 @strlen(i8* %9) #3
  %11 = trunc i64 %10 to i32
  store i32 %11, i32* %4, align 4
  %12 = load i32, i32* %4, align 4
  %13 = icmp ne i32 %12, 1
  br i1 %13, label %14, label %74

14:                                               ; preds = %0
  %15 = getelementptr inbounds [200 x i8], [200 x i8]* %5, i64 0, i64 0
  %16 = load i8, i8* %15, align 16
  %17 = getelementptr inbounds [200 x i8], [200 x i8]* %6, i64 0, i64 0
  store i8 %16, i8* %17, align 16
  store i32 1, i32* %3, align 4
  store i32 1, i32* %2, align 4
  br label %18

18:                                               ; preds = %58, %14
  %19 = load i32, i32* %2, align 4
  %20 = load i32, i32* %4, align 4
  %21 = sub nsw i32 %20, 1
  %22 = icmp slt i32 %19, %21
  br i1 %22, label %23, label %61

23:                                               ; preds = %18
  br label %24

24:                                               ; preds = %23
  %25 = load i32, i32* %2, align 4
  %26 = sext i32 %25 to i64
  %27 = getelementptr inbounds [200 x i8], [200 x i8]* %5, i64 0, i64 %26
  %28 = load i8, i8* %27, align 1
  %29 = sext i8 %28 to i32
  %30 = icmp ne i32 %29, 32
  br i1 %30, label %46, label %31

31:                                               ; preds = %24
  %32 = load i32, i32* %2, align 4
  %33 = sext i32 %32 to i64
  %34 = getelementptr inbounds [200 x i8], [200 x i8]* %5, i64 0, i64 %33
  %35 = load i8, i8* %34, align 1
  %36 = sext i8 %35 to i32
  %37 = icmp eq i32 %36, 32
  br i1 %37, label %38, label %56

38:                                               ; preds = %31
  %39 = load i32, i32* %2, align 4
  %40 = sub nsw i32 %39, 1
  %41 = sext i32 %40 to i64
  %42 = getelementptr inbounds [200 x i8], [200 x i8]* %5, i64 0, i64 %41
  %43 = load i8, i8* %42, align 1
  %44 = sext i8 %43 to i32
  %45 = icmp ne i32 %44, 32
  br i1 %45, label %46, label %56

46:                                               ; preds = %38, %24
  %47 = load i32, i32* %2, align 4
  %48 = sext i32 %47 to i64
  %49 = getelementptr inbounds [200 x i8], [200 x i8]* %5, i64 0, i64 %48
  %50 = load i8, i8* %49, align 1
  %51 = load i32, i32* %3, align 4
  %52 = sext i32 %51 to i64
  %53 = getelementptr inbounds [200 x i8], [200 x i8]* %6, i64 0, i64 %52
  store i8 %50, i8* %53, align 1
  %54 = load i32, i32* %3, align 4
  %55 = add nsw i32 %54, 1
  store i32 %55, i32* %3, align 4
  br label %57

56:                                               ; preds = %38, %31
  br label %57

57:                                               ; preds = %56, %46
  br label %58

58:                                               ; preds = %57
  %59 = load i32, i32* %2, align 4
  %60 = add nsw i32 %59, 1
  store i32 %60, i32* %2, align 4
  br label %18

61:                                               ; preds = %18
  %62 = load i32, i32* %4, align 4
  %63 = sub nsw i32 %62, 1
  %64 = sext i32 %63 to i64
  %65 = getelementptr inbounds [200 x i8], [200 x i8]* %5, i64 0, i64 %64
  %66 = load i8, i8* %65, align 1
  %67 = load i32, i32* %3, align 4
  %68 = sext i32 %67 to i64
  %69 = getelementptr inbounds [200 x i8], [200 x i8]* %6, i64 0, i64 %68
  store i8 %66, i8* %69, align 1
  %70 = load i32, i32* %3, align 4
  %71 = add nsw i32 %70, 1
  %72 = sext i32 %71 to i64
  %73 = getelementptr inbounds [200 x i8], [200 x i8]* %6, i64 0, i64 %72
  store i8 0, i8* %73, align 1
  br label %74

74:                                               ; preds = %61, %0
  %75 = load i32, i32* %4, align 4
  %76 = icmp eq i32 %75, 1
  br i1 %76, label %77, label %82

77:                                               ; preds = %74
  %78 = getelementptr inbounds [200 x i8], [200 x i8]* %5, i64 0, i64 0
  %79 = load i8, i8* %78, align 16
  %80 = getelementptr inbounds [200 x i8], [200 x i8]* %6, i64 0, i64 0
  store i8 %79, i8* %80, align 16
  %81 = getelementptr inbounds [200 x i8], [200 x i8]* %6, i64 0, i64 1
  store i8 0, i8* %81, align 1
  br label %82

82:                                               ; preds = %77, %74
  %83 = getelementptr inbounds [200 x i8], [200 x i8]* %6, i64 0, i64 0
  %84 = call i32 @puts(i8* %83)
  ret i32 0
}

declare dso_local i32 @gets(...) #1

; Function Attrs: nounwind readonly
declare dso_local i64 @strlen(i8*) #2

declare dso_local i32 @puts(i8*) #1


!llvm.module.flags = !{!0}
!llvm.ident = !{!1}

!0 = !{i32 1, !"wchar_size", i32 4}
!1 = !{!"clang version 10.0.0-4ubuntu1 "}
